target datalayout = "e-m:e-p270:32:32-p271:32:32-p272:64:64-i64:64-i128:128-f80:128-n8:16:32:64-S128"
target triple = "x86_64-pc-linux-gnu"

@H5P_CLS_FILE_CREATE_ID_g = external global i64, align 8
@H5_libinit_g = external global i8, align 1
@H5_libterm_g = external global i8, align 1
@.str.1 = private unnamed_addr constant [101 x i8] c"generated/home/dtcxzyw/WorkSpace/Projects/compilers/llvm-opt-benchmark/bench/hdf5/hdf5/src/H5Pfcpl.c\00", align 1
@H5E_FUNC_g = external global i64, align 8
@H5E_CANTINIT_g = external global i64, align 8
@.str.2 = private unnamed_addr constant [30 x i8] c"library initialization failed\00", align 1
@H5E_CANTSET_g = external global i64, align 8
@.str.3 = private unnamed_addr constant [22 x i8] c"can't set API context\00", align 1
@H5E_ARGS_g = external global i64, align 8
@H5E_ID_g = external global i64, align 8
@H5E_BADID_g = external global i64, align 8
@.str.6 = private unnamed_addr constant [25 x i8] c"can't find object for ID\00", align 1
@H5E_PLIST_g = external global i64, align 8
@H5E_CANTGET_g = external global i64, align 8
@H5E_BADRANGE_g = external global i64, align 8
@.str.29 = private unnamed_addr constant [18 x i8] c"num_shmsg_indexes\00", align 1
@.str.31 = private unnamed_addr constant [28 x i8] c"can't get number of indexes\00", align 1
@.str.34 = private unnamed_addr constant [20 x i8] c"shmsg_message_types\00", align 1
@.str.35 = private unnamed_addr constant [35 x i8] c"can't get current index type flags\00", align 1
@.str.36 = private unnamed_addr constant [22 x i8] c"shmsg_message_minsize\00", align 1
@.str.37 = private unnamed_addr constant [28 x i8] c"can't get current min sizes\00", align 1
@__func__.H5Pget_shared_mesg_index = private unnamed_addr constant [25 x i8] c"H5Pget_shared_mesg_index\00", align 1
@.str.40 = private unnamed_addr constant [61 x i8] c"index_num is greater than number of indexes in property list\00", align 1

; Function Attrs: nounwind uwtable
define i32 @H5Pget_shared_mesg_index(i64 noundef %0, i32 noundef %1, ptr noundef %2, ptr noundef %3) #0 {
  %5 = alloca i64, align 8
  %6 = alloca i32, align 4
  %7 = alloca ptr, align 8
  %8 = alloca ptr, align 8
  %9 = alloca ptr, align 8
  %10 = alloca i32, align 4
  %11 = alloca [8 x i32], align 16
  %12 = alloca [8 x i32], align 16
  %13 = alloca i32, align 4
  %14 = alloca i8, align 1
  %15 = alloca i8, align 1
  store i64 %0, ptr %5, align 8
  store i32 %1, ptr %6, align 4
  store ptr %2, ptr %7, align 8
  store ptr %3, ptr %8, align 8
  store i32 0, ptr %13, align 4
  store i8 0, ptr %14, align 1
  store i8 0, ptr %15, align 1
  %16 = load i8, ptr @H5_libinit_g, align 1
  %17 = trunc i8 %16 to i1
  br i1 %17, label %22, label %18

18:                                               ; preds = %4
  %19 = load i8, ptr @H5_libterm_g, align 1
  %20 = trunc i8 %19 to i1
  %21 = xor i1 %20, true
  br label %22

22:                                               ; preds = %18, %4
  %23 = phi i1 [ false, %4 ], [ %21, %18 ]
  %24 = xor i1 %23, true
  %25 = xor i1 %24, true
  %26 = zext i1 %25 to i32
  %27 = sext i32 %26 to i64
  %28 = icmp ne i64 %27, 0
  br i1 %28, label %29, label %53

29:                                               ; preds = %22
  %30 = call i32 @H5_init_library()
  %31 = icmp slt i32 %30, 0
  %32 = xor i1 %31, true
  %33 = xor i1 %32, true
  %34 = zext i1 %33 to i32
  %35 = sext i32 %34 to i64
  %36 = icmp ne i64 %35, 0
  br i1 %36, label %37, label %52

37:                                               ; preds = %29
  br label %38

38:                                               ; preds = %37
  br label %39

39:                                               ; preds = %38
  br label %40

40:                                               ; preds = %39
  %41 = load i64, ptr @H5E_FUNC_g, align 8
  %42 = load i64, ptr @H5E_CANTINIT_g, align 8
  %43 = call i32 (ptr, ptr, i32, i64, i64, ptr, ...) @H5E_printf_stack(ptr noundef @.str.1, ptr noundef @__func__.H5Pget_shared_mesg_index, i32 noundef 878, i64 noundef %41, i64 noundef %42, ptr noundef @.str.2)
  br label %44

44:                                               ; preds = %40
  store i8 1, ptr %15, align 1
  %45 = load i8, ptr %15, align 1
  %46 = trunc i8 %45 to i1
  %47 = zext i1 %46 to i8
  store i8 %47, ptr %15, align 1
  br label %48

48:                                               ; preds = %44
  br label %49

49:                                               ; preds = %48
  store i32 -1, ptr %13, align 4
  br label %195

50:                                               ; No predecessors!
  br label %51

51:                                               ; preds = %50
  br label %52

52:                                               ; preds = %51, %29
  br label %53

53:                                               ; preds = %52, %22
  %54 = call i32 @H5CX_push()
  %55 = icmp slt i32 %54, 0
  %56 = xor i1 %55, true
  %57 = xor i1 %56, true
  %58 = zext i1 %57 to i32
  %59 = sext i32 %58 to i64
  %60 = icmp ne i64 %59, 0
  br i1 %60, label %61, label %76

61:                                               ; preds = %53
  br label %62

62:                                               ; preds = %61
  br label %63

63:                                               ; preds = %62
  br label %64

64:                                               ; preds = %63
  %65 = load i64, ptr @H5E_FUNC_g, align 8
  %66 = load i64, ptr @H5E_CANTSET_g, align 8
  %67 = call i32 (ptr, ptr, i32, i64, i64, ptr, ...) @H5E_printf_stack(ptr noundef @.str.1, ptr noundef @__func__.H5Pget_shared_mesg_index, i32 noundef 878, i64 noundef %65, i64 noundef %66, ptr noundef @.str.3)
  br label %68

68:                                               ; preds = %64
  store i8 1, ptr %15, align 1
  %69 = load i8, ptr %15, align 1
  %70 = trunc i8 %69 to i1
  %71 = zext i1 %70 to i8
  store i8 %71, ptr %15, align 1
  br label %72

72:                                               ; preds = %68
  br label %73

73:                                               ; preds = %72
  store i32 -1, ptr %13, align 4
  br label %195

74:                                               ; No predecessors!
  br label %75

75:                                               ; preds = %74
  br label %77

76:                                               ; preds = %53
  store i8 1, ptr %14, align 1
  br label %77

77:                                               ; preds = %76, %75
  %78 = call i32 @H5E_clear_stack()
  %79 = load i64, ptr %5, align 8
  %80 = load i64, ptr @H5P_CLS_FILE_CREATE_ID_g, align 8
  %81 = call ptr @H5P_object_verify(i64 noundef %79, i64 noundef %80)
  store ptr %81, ptr %9, align 8
  %82 = icmp eq ptr null, %81
  br i1 %82, label %83, label %98

83:                                               ; preds = %77
  br label %84

84:                                               ; preds = %83
  br label %85

85:                                               ; preds = %84
  br label %86

86:                                               ; preds = %85
  %87 = load i64, ptr @H5E_ID_g, align 8
  %88 = load i64, ptr @H5E_BADID_g, align 8
  %89 = call i32 (ptr, ptr, i32, i64, i64, ptr, ...) @H5E_printf_stack(ptr noundef @.str.1, ptr noundef @__func__.H5Pget_shared_mesg_index, i32 noundef 882, i64 noundef %87, i64 noundef %88, ptr noundef @.str.6)
  br label %90

90:                                               ; preds = %86
  store i8 1, ptr %15, align 1
  %91 = load i8, ptr %15, align 1
  %92 = trunc i8 %91 to i1
  %93 = zext i1 %92 to i8
  store i8 %93, ptr %15, align 1
  br label %94

94:                                               ; preds = %90
  br label %95

95:                                               ; preds = %94
  store i32 -1, ptr %13, align 4
  br label %195

96:                                               ; No predecessors!
  br label %97

97:                                               ; preds = %96
  br label %98

98:                                               ; preds = %97, %77
  %99 = load ptr, ptr %9, align 8
  %100 = call i32 @H5P_get(ptr noundef %99, ptr noundef @.str.29, ptr noundef %10)
  %101 = icmp slt i32 %100, 0
  br i1 %101, label %102, label %117

102:                                              ; preds = %98
  br label %103

103:                                              ; preds = %102
  br label %104

104:                                              ; preds = %103
  br label %105

105:                                              ; preds = %104
  %106 = load i64, ptr @H5E_PLIST_g, align 8
  %107 = load i64, ptr @H5E_CANTGET_g, align 8
  %108 = call i32 (ptr, ptr, i32, i64, i64, ptr, ...) @H5E_printf_stack(ptr noundef @.str.1, ptr noundef @__func__.H5Pget_shared_mesg_index, i32 noundef 886, i64 noundef %106, i64 noundef %107, ptr noundef @.str.31)
  br label %109

109:                                              ; preds = %105
  store i8 1, ptr %15, align 1
  %110 = load i8, ptr %15, align 1
  %111 = trunc i8 %110 to i1
  %112 = zext i1 %111 to i8
  store i8 %112, ptr %15, align 1
  br label %113

113:                                              ; preds = %109
  br label %114

114:                                              ; preds = %113
  store i32 -1, ptr %13, align 4
  br label %195

115:                                              ; No predecessors!
  br label %116

116:                                              ; preds = %115
  br label %117

117:                                              ; preds = %116, %98
  %118 = load i32, ptr %6, align 4
  %119 = load i32, ptr %10, align 4
  %120 = icmp uge i32 %118, %119
  br i1 %120, label %121, label %136

121:                                              ; preds = %117
  br label %122

122:                                              ; preds = %121
  br label %123

123:                                              ; preds = %122
  br label %124

124:                                              ; preds = %123
  %125 = load i64, ptr @H5E_ARGS_g, align 8
  %126 = load i64, ptr @H5E_BADRANGE_g, align 8
  %127 = call i32 (ptr, ptr, i32, i64, i64, ptr, ...) @H5E_printf_stack(ptr noundef @.str.1, ptr noundef @__func__.H5Pget_shared_mesg_index, i32 noundef 890, i64 noundef %125, i64 noundef %126, ptr noundef @.str.40)
  br label %128

128:                                              ; preds = %124
  store i8 1, ptr %15, align 1
  %129 = load i8, ptr %15, align 1
  %130 = trunc i8 %129 to i1
  %131 = zext i1 %130 to i8
  store i8 %131, ptr %15, align 1
  br label %132

132:                                              ; preds = %128
  br label %133

133:                                              ; preds = %132
  store i32 -1, ptr %13, align 4
  br label %195

134:                                              ; No predecessors!
  br label %135

135:                                              ; preds = %134
  br label %136

136:                                              ; preds = %135, %117
  %137 = load ptr, ptr %9, align 8
  %138 = getelementptr inbounds [8 x i32], ptr %11, i64 0, i64 0
  %139 = call i32 @H5P_get(ptr noundef %137, ptr noundef @.str.34, ptr noundef %138)
  %140 = icmp slt i32 %139, 0
  br i1 %140, label %141, label %156

141:                                              ; preds = %136
  br label %142

142:                                              ; preds = %141
  br label %143

143:                                              ; preds = %142
  br label %144

144:                                              ; preds = %143
  %145 = load i64, ptr @H5E_PLIST_g, align 8
  %146 = load i64, ptr @H5E_CANTGET_g, align 8
  %147 = call i32 (ptr, ptr, i32, i64, i64, ptr, ...) @H5E_printf_stack(ptr noundef @.str.1, ptr noundef @__func__.H5Pget_shared_mesg_index, i32 noundef 894, i64 noundef %145, i64 noundef %146, ptr noundef @.str.35)
  br label %148

148:                                              ; preds = %144
  store i8 1, ptr %15, align 1
  %149 = load i8, ptr %15, align 1
  %150 = trunc i8 %149 to i1
  %151 = zext i1 %150 to i8
  store i8 %151, ptr %15, align 1
  br label %152

152:                                              ; preds = %148
  br label %153

153:                                              ; preds = %152
  store i32 -1, ptr %13, align 4
  br label %195

154:                                              ; No predecessors!
  br label %155

155:                                              ; preds = %154
  br label %156

156:                                              ; preds = %155, %136
  %157 = load ptr, ptr %9, align 8
  %158 = getelementptr inbounds [8 x i32], ptr %12, i64 0, i64 0
  %159 = call i32 @H5P_get(ptr noundef %157, ptr noundef @.str.36, ptr noundef %158)
  %160 = icmp slt i32 %159, 0
  br i1 %160, label %161, label %176

161:                                              ; preds = %156
  br label %162

162:                                              ; preds = %161
  br label %163

163:                                              ; preds = %162
  br label %164

164:                                              ; preds = %163
  %165 = load i64, ptr @H5E_PLIST_g, align 8
  %166 = load i64, ptr @H5E_CANTGET_g, align 8
  %167 = call i32 (ptr, ptr, i32, i64, i64, ptr, ...) @H5E_printf_stack(ptr noundef @.str.1, ptr noundef @__func__.H5Pget_shared_mesg_index, i32 noundef 896, i64 noundef %165, i64 noundef %166, ptr noundef @.str.37)
  br label %168

168:                                              ; preds = %164
  store i8 1, ptr %15, align 1
  %169 = load i8, ptr %15, align 1
  %170 = trunc i8 %169 to i1
  %171 = zext i1 %170 to i8
  store i8 %171, ptr %15, align 1
  br label %172

172:                                              ; preds = %168
  br label %173

173:                                              ; preds = %172
  store i32 -1, ptr %13, align 4
  br label %195

174:                                              ; No predecessors!
  br label %175

175:                                              ; preds = %174
  br label %176

176:                                              ; preds = %175, %156
  %177 = load ptr, ptr %7, align 8
  %178 = icmp ne ptr %177, null
  br i1 %178, label %179, label %185

179:                                              ; preds = %176
  %180 = load i32, ptr %6, align 4
  %181 = zext i32 %180 to i64
  %182 = getelementptr inbounds [8 x i32], ptr %11, i64 0, i64 %181
  %183 = load i32, ptr %182, align 4
  %184 = load ptr, ptr %7, align 8
  store i32 %183, ptr %184, align 4
  br label %185

185:                                              ; preds = %179, %176
  %186 = load ptr, ptr %8, align 8
  %187 = icmp ne ptr %186, null
  br i1 %187, label %188, label %194

188:                                              ; preds = %185
  %189 = load i32, ptr %6, align 4
  %190 = zext i32 %189 to i64
  %191 = getelementptr inbounds [8 x i32], ptr %12, i64 0, i64 %190
  %192 = load i32, ptr %191, align 4
  %193 = load ptr, ptr %8, align 8
  store i32 %192, ptr %193, align 4
  br label %194

194:                                              ; preds = %188, %185
  br label %195

195:                                              ; preds = %194, %173, %153, %133, %114, %95, %73, %49
  %196 = load i8, ptr %14, align 1
  %197 = trunc i8 %196 to i1
  %198 = xor i1 %197, true
  %199 = xor i1 %198, true
  %200 = zext i1 %199 to i32
  %201 = sext i32 %200 to i64
  %202 = icmp ne i64 %201, 0
  br i1 %202, label %203, label %205

203:                                              ; preds = %195
  %204 = call i32 @H5CX_pop(i1 noundef zeroext true)
  store i8 0, ptr %14, align 1
  br label %205

205:                                              ; preds = %203, %195
  %206 = load i8, ptr %15, align 1
  %207 = trunc i8 %206 to i1
  %208 = xor i1 %207, true
  %209 = xor i1 %208, true
  %210 = zext i1 %209 to i32
  %211 = sext i32 %210 to i64
  %212 = icmp ne i64 %211, 0
  br i1 %212, label %213, label %215

213:                                              ; preds = %205
  %214 = call i32 @H5E_dump_api_stack()
  br label %215

215:                                              ; preds = %213, %205
  %216 = load i32, ptr %13, align 4
  ret i32 %216
}