; Function Attrs: nounwind uwtable
define range(i32 -1, 1) i32 @H5Pget_shared_mesg_index(i64 noundef %0, i32 noundef %1, ptr noundef writeonly %2, ptr noundef writeonly %3) local_unnamed_addr #0 {
  %5 = alloca i32, align 4
  %6 = alloca [8 x i32], align 16
  %7 = alloca [8 x i32], align 16
  %8 = load i8, ptr @H5_libinit_g, align 1
  %9 = trunc i8 %8 to i1
  %10 = load i8, ptr @H5_libterm_g, align 1
  %11 = trunc i8 %10 to i1
  %12 = select i1 %9, i1 true, i1 %11
  br i1 %12, label %20, label %13

13:                                               ; preds = %4
  %14 = tail call i32 @H5_init_library() #6
  %15 = icmp slt i32 %14, 0
  br i1 %15, label %16, label %20

16:                                               ; preds = %13
  %17 = load i64, ptr @H5E_FUNC_g, align 8
  %18 = load i64, ptr @H5E_CANTINIT_g, align 8
  %19 = tail call i32 (ptr, ptr, i32, i64, i64, ptr, ...) @H5E_printf_stack(ptr noundef nonnull @.str.1, ptr noundef nonnull @__func__.H5Pget_shared_mesg_index, i32 noundef 878, i64 noundef %17, i64 noundef %18, ptr noundef nonnull @.str.2) #6
  br label %.thread36

20:                                               ; preds = %13, %4
  %21 = tail call i32 @H5CX_push() #6
  %22 = icmp slt i32 %21, 0
  br i1 %22, label %23, label %27

23:                                               ; preds = %20
  %24 = load i64, ptr @H5E_FUNC_g, align 8
  %25 = load i64, ptr @H5E_CANTSET_g, align 8
  %26 = tail call i32 (ptr, ptr, i32, i64, i64, ptr, ...) @H5E_printf_stack(ptr noundef nonnull @.str.1, ptr noundef nonnull @__func__.H5Pget_shared_mesg_index, i32 noundef 878, i64 noundef %24, i64 noundef %25, ptr noundef nonnull @.str.3) #6
  br label %.thread36

27:                                               ; preds = %20
  %28 = tail call i32 @H5E_clear_stack() #6
  %29 = load i64, ptr @H5P_CLS_FILE_CREATE_ID_g, align 8
  %30 = tail call ptr @H5P_object_verify(i64 noundef %0, i64 noundef %29) #6
  %31 = icmp eq ptr %30, null
  br i1 %31, label %32, label %36

32:                                               ; preds = %27
  %33 = load i64, ptr @H5E_ID_g, align 8
  %34 = load i64, ptr @H5E_BADID_g, align 8
  %35 = tail call i32 (ptr, ptr, i32, i64, i64, ptr, ...) @H5E_printf_stack(ptr noundef nonnull @.str.1, ptr noundef nonnull @__func__.H5Pget_shared_mesg_index, i32 noundef 882, i64 noundef %33, i64 noundef %34, ptr noundef nonnull @.str.6) #6
  br label %.thread42

36:                                               ; preds = %27
  %37 = call i32 @H5P_get(ptr noundef nonnull %30, ptr noundef nonnull @.str.29, ptr noundef nonnull %5) #6
  %38 = icmp slt i32 %37, 0
  br i1 %38, label %39, label %43

39:                                               ; preds = %36
  %40 = load i64, ptr @H5E_PLIST_g, align 8
  %41 = load i64, ptr @H5E_CANTGET_g, align 8
  %42 = call i32 (ptr, ptr, i32, i64, i64, ptr, ...) @H5E_printf_stack(ptr noundef nonnull @.str.1, ptr noundef nonnull @__func__.H5Pget_shared_mesg_index, i32 noundef 886, i64 noundef %40, i64 noundef %41, ptr noundef nonnull @.str.31) #6
  br label %.thread42

43:                                               ; preds = %36
  %44 = load i32, ptr %5, align 4
  %.not = icmp ult i32 %1, %44
  br i1 %.not, label %49, label %45

45:                                               ; preds = %43
  %46 = load i64, ptr @H5E_ARGS_g, align 8
  %47 = load i64, ptr @H5E_BADRANGE_g, align 8
  %48 = call i32 (ptr, ptr, i32, i64, i64, ptr, ...) @H5E_printf_stack(ptr noundef nonnull @.str.1, ptr noundef nonnull @__func__.H5Pget_shared_mesg_index, i32 noundef 890, i64 noundef %46, i64 noundef %47, ptr noundef nonnull @.str.40) #6
  br label %.thread42

49:                                               ; preds = %43
  %50 = call i32 @H5P_get(ptr noundef nonnull %30, ptr noundef nonnull @.str.34, ptr noundef nonnull %6) #6
  %51 = icmp slt i32 %50, 0
  br i1 %51, label %52, label %56

52:                                               ; preds = %49
  %53 = load i64, ptr @H5E_PLIST_g, align 8
  %54 = load i64, ptr @H5E_CANTGET_g, align 8
  %55 = call i32 (ptr, ptr, i32, i64, i64, ptr, ...) @H5E_printf_stack(ptr noundef nonnull @.str.1, ptr noundef nonnull @__func__.H5Pget_shared_mesg_index, i32 noundef 894, i64 noundef %53, i64 noundef %54, ptr noundef nonnull @.str.35) #6
  br label %.thread42

56:                                               ; preds = %49
  %57 = call i32 @H5P_get(ptr noundef nonnull %30, ptr noundef nonnull @.str.36, ptr noundef nonnull %7) #6
  %58 = icmp slt i32 %57, 0
  br i1 %58, label %59, label %63

59:                                               ; preds = %56
  %60 = load i64, ptr @H5E_PLIST_g, align 8
  %61 = load i64, ptr @H5E_CANTGET_g, align 8
  %62 = call i32 (ptr, ptr, i32, i64, i64, ptr, ...) @H5E_printf_stack(ptr noundef nonnull @.str.1, ptr noundef nonnull @__func__.H5Pget_shared_mesg_index, i32 noundef 896, i64 noundef %60, i64 noundef %61, ptr noundef nonnull @.str.37) #6
  br label %.thread42

63:                                               ; preds = %56
  %.not26 = icmp eq ptr %2, null
  br i1 %.not26, label %68, label %64

64:                                               ; preds = %63
  %65 = zext i32 %1 to i64
  %66 = getelementptr inbounds nuw [8 x i32], ptr %6, i64 0, i64 %65
  %67 = load i32, ptr %66, align 4
  store i32 %67, ptr %2, align 4
  br label %68

68:                                               ; preds = %64, %63
  %.not27 = icmp eq ptr %3, null
  br i1 %.not27, label %74, label %69

69:                                               ; preds = %68
  %70 = zext i32 %1 to i64
  %71 = getelementptr inbounds nuw [8 x i32], ptr %7, i64 0, i64 %70
  %72 = load i32, ptr %71, align 4
  store i32 %72, ptr %3, align 4
  br label %74

.thread42:                                        ; preds = %59, %52, %45, %39, %32
  %73 = call i32 @H5CX_pop(i1 noundef zeroext true) #6
  br label %.thread36

74:                                               ; preds = %68, %69
  %75 = call i32 @H5CX_pop(i1 noundef zeroext true) #6
  br label %77

.thread36:                                        ; preds = %23, %16, %.thread42
  %76 = call i32 @H5E_dump_api_stack() #6
  br label %77

77:                                               ; preds = %74, %.thread36
  %.0213139 = phi i32 [ -1, %.thread36 ], [ 0, %74 ]
  ret i32 %.0213139
}